target datalayout = "e-m:e-p270:32:32-p271:32:32-p272:64:64-i64:64-i128:128-f80:128-n8:16:32:64-S128"
target triple = "x86_64-pc-linux-gnu"

%struct.AVRational = type { i32, i32 }
%struct.Encoder = type { ptr, ptr, i64, i64 }
%struct.AVCodecContext = type { ptr, i32, i32, ptr, i32, i32, ptr, ptr, ptr, i64, i32, i32, ptr, i32, %struct.AVRational, %struct.AVRational, %struct.AVRational, i32, i32, i32, i32, i32, %struct.AVRational, i32, i32, i32, i32, i32, i32, i32, i32, i32, i32, i32, ptr, ptr, i32, float, float, float, float, float, float, float, float, float, i32, i32, i32, i32, i32, i32, i32, i32, i32, i32, i32, i32, ptr, ptr, ptr, i32, i32, i32, i32, i32, i32, i32, i32, i32, i32, %struct.AVChannelLayout, i32, i32, i32, i32, i32, i32, i32, i32, ptr, i32, i32, i32, float, float, i32, i32, i32, i32, i32, ptr, i64, i64, float, float, i32, i32, ptr, ptr, i32, i32, i32, i32, i32, ptr, ptr, ptr, ptr, i32, i32, [8 x i64], i32, i32, i32, i32, i32, i32, i32, ptr, ptr, i32, i32, i32, i32, i32, i32, i32, i32, i32, i32, ptr, ptr, i32, i32, ptr, ptr, ptr, ptr, i32, i32, i64, i32, i32, i64, ptr, i64, ptr, i32, ptr, i32 }
%struct.AVChannelLayout = type { i32, i32, %union.anon, ptr }
%union.anon = type { i64 }
%struct.EncoderPriv = type { %struct.Encoder, ptr, [32 x i8], i64, i64, i32, i32, ptr, i32 }
%struct.AVCodec = type { ptr, ptr, i32, i32, i32, i8, ptr, ptr, ptr, ptr, ptr, ptr, ptr, ptr }

@.str = private unnamed_addr constant [7 x i8] c"enc:%s\00", align 1
@enc_class = internal constant { ptr, ptr, ptr, i32, i32, i32, i32, ptr, ptr, ptr, ptr, i32, [4 x i8] } { ptr @.str.25, ptr @enc_item_name, ptr null, i32 3932772, i32 0, i32 32, i32 0, ptr null, ptr null, ptr null, ptr null, i32 0, [4 x i8] zeroinitializer }, align 8

; Function Attrs: nounwind uwtable
define void @enc_free(ptr noundef %0) #0 {
  %2 = alloca ptr, align 8
  %3 = alloca ptr, align 8
  %4 = alloca i32, align 4
  store ptr %0, ptr %2, align 8, !tbaa !4
  call void @llvm.lifetime.start.p0(i64 8, ptr %3) #11
  %5 = load ptr, ptr %2, align 8, !tbaa !4
  %6 = load ptr, ptr %5, align 8, !tbaa !10
  store ptr %6, ptr %3, align 8, !tbaa !10
  %7 = load ptr, ptr %3, align 8, !tbaa !10
  %8 = icmp ne ptr %7, null
  br i1 %8, label %10, label %9

9:                                                ; preds = %1
  store i32 1, ptr %4, align 4
  br label %24

10:                                               ; preds = %1
  %11 = load ptr, ptr %3, align 8, !tbaa !10
  %12 = getelementptr inbounds nuw %struct.Encoder, ptr %11, i32 0, i32 1
  %13 = load ptr, ptr %12, align 8, !tbaa !12
  %14 = icmp ne ptr %13, null
  br i1 %14, label %15, label %20

15:                                               ; preds = %10
  %16 = load ptr, ptr %3, align 8, !tbaa !10
  %17 = getelementptr inbounds nuw %struct.Encoder, ptr %16, i32 0, i32 1
  %18 = load ptr, ptr %17, align 8, !tbaa !12
  %19 = getelementptr inbounds nuw %struct.AVCodecContext, ptr %18, i32 0, i32 99
  call void @av_freep(ptr noundef %19)
  br label %20

20:                                               ; preds = %15, %10
  %21 = load ptr, ptr %3, align 8, !tbaa !10
  %22 = getelementptr inbounds nuw %struct.Encoder, ptr %21, i32 0, i32 1
  call void @avcodec_free_context(ptr noundef %22)
  %23 = load ptr, ptr %2, align 8, !tbaa !4
  call void @av_freep(ptr noundef %23)
  store i32 0, ptr %4, align 4
  br label %24

24:                                               ; preds = %20, %9
  call void @llvm.lifetime.end.p0(i64 8, ptr %3) #11
  %25 = load i32, ptr %4, align 4
  switch i32 %25, label %27 [
    i32 0, label %26
    i32 1, label %26
  ]

26:                                               ; preds = %24, %24
  ret void

27:                                               ; preds = %24
  unreachable
}

; Function Attrs: nounwind uwtable
define i32 @enc_alloc(ptr noundef %0, ptr noundef %1, ptr noundef %2, i32 noundef %3, ptr noundef %4) #0 {
  %6 = alloca i32, align 4
  %7 = alloca ptr, align 8
  %8 = alloca ptr, align 8
  %9 = alloca ptr, align 8
  %10 = alloca i32, align 4
  %11 = alloca ptr, align 8
  %12 = alloca ptr, align 8
  %13 = alloca i32, align 4
  %14 = alloca i32, align 4
  store ptr %0, ptr %7, align 8, !tbaa !4
  store ptr %1, ptr %8, align 8, !tbaa !17
  store ptr %2, ptr %9, align 8, !tbaa !19
  store i32 %3, ptr %10, align 4, !tbaa !21
  store ptr %4, ptr %11, align 8, !tbaa !23
  call void @llvm.lifetime.start.p0(i64 8, ptr %12) #11
  call void @llvm.lifetime.start.p0(i64 4, ptr %13) #11
  store i32 0, ptr %13, align 4, !tbaa !21
  %15 = load ptr, ptr %7, align 8, !tbaa !4
  store ptr null, ptr %15, align 8, !tbaa !10
  %16 = call noalias ptr @av_mallocz(i64 noundef 112)
  store ptr %16, ptr %12, align 8, !tbaa !24
  %17 = load ptr, ptr %12, align 8, !tbaa !24
  %18 = icmp ne ptr %17, null
  br i1 %18, label %20, label %19

19:                                               ; preds = %5
  store i32 -12, ptr %6, align 4
  store i32 1, ptr %14, align 4
  br label %57

20:                                               ; preds = %5
  %21 = load ptr, ptr %12, align 8, !tbaa !24
  %22 = getelementptr inbounds nuw %struct.EncoderPriv, ptr %21, i32 0, i32 0
  %23 = getelementptr inbounds nuw %struct.Encoder, ptr %22, i32 0, i32 0
  store ptr @enc_class, ptr %23, align 8, !tbaa !26
  %24 = load ptr, ptr %11, align 8, !tbaa !23
  %25 = load ptr, ptr %12, align 8, !tbaa !24
  %26 = getelementptr inbounds nuw %struct.EncoderPriv, ptr %25, i32 0, i32 1
  store ptr %24, ptr %26, align 8, !tbaa !28
  %27 = load ptr, ptr %9, align 8, !tbaa !19
  %28 = load ptr, ptr %12, align 8, !tbaa !24
  %29 = getelementptr inbounds nuw %struct.EncoderPriv, ptr %28, i32 0, i32 7
  store ptr %27, ptr %29, align 8, !tbaa !29
  %30 = load i32, ptr %10, align 4, !tbaa !21
  %31 = load ptr, ptr %12, align 8, !tbaa !24
  %32 = getelementptr inbounds nuw %struct.EncoderPriv, ptr %31, i32 0, i32 8
  store i32 %30, ptr %32, align 8, !tbaa !30
  %33 = load ptr, ptr %12, align 8, !tbaa !24
  %34 = getelementptr inbounds nuw %struct.EncoderPriv, ptr %33, i32 0, i32 2
  %35 = getelementptr inbounds [32 x i8], ptr %34, i64 0, i64 0
  %36 = load ptr, ptr %8, align 8, !tbaa !17
  %37 = getelementptr inbounds nuw %struct.AVCodec, ptr %36, i32 0, i32 0
  %38 = load ptr, ptr %37, align 8, !tbaa !31
  %39 = call i32 (ptr, i64, ptr, ...) @snprintf(ptr noundef %35, i64 noundef 32, ptr noundef @.str, ptr noundef %38) #11
  %40 = load ptr, ptr %8, align 8, !tbaa !17
  %41 = call ptr @avcodec_alloc_context3(ptr noundef %40)
  %42 = load ptr, ptr %12, align 8, !tbaa !24
  %43 = getelementptr inbounds nuw %struct.EncoderPriv, ptr %42, i32 0, i32 0
  %44 = getelementptr inbounds nuw %struct.Encoder, ptr %43, i32 0, i32 1
  store ptr %41, ptr %44, align 8, !tbaa !38
  %45 = load ptr, ptr %12, align 8, !tbaa !24
  %46 = getelementptr inbounds nuw %struct.EncoderPriv, ptr %45, i32 0, i32 0
  %47 = getelementptr inbounds nuw %struct.Encoder, ptr %46, i32 0, i32 1
  %48 = load ptr, ptr %47, align 8, !tbaa !38
  %49 = icmp ne ptr %48, null
  br i1 %49, label %51, label %50

50:                                               ; preds = %20
  store i32 -12, ptr %13, align 4, !tbaa !21
  br label %55

51:                                               ; preds = %20
  %52 = load ptr, ptr %12, align 8, !tbaa !24
  %53 = getelementptr inbounds nuw %struct.EncoderPriv, ptr %52, i32 0, i32 0
  %54 = load ptr, ptr %7, align 8, !tbaa !4
  store ptr %53, ptr %54, align 8, !tbaa !10
  store i32 0, ptr %6, align 4
  store i32 1, ptr %14, align 4
  br label %57

55:                                               ; preds = %50
  call void @enc_free(ptr noundef %12)
  %56 = load i32, ptr %13, align 4, !tbaa !21
  store i32 %56, ptr %6, align 4
  store i32 1, ptr %14, align 4
  br label %57

57:                                               ; preds = %55, %51, %19
  call void @llvm.lifetime.end.p0(i64 4, ptr %13) #11
  call void @llvm.lifetime.end.p0(i64 8, ptr %12) #11
  %58 = load i32, ptr %6, align 4
  ret i32 %58
}