; Function Attrs: nounwind uwtable
define range(i32 -12, 1) i32 @enc_alloc(ptr noundef writeonly captures(none) initializes((0, 8)) %0, ptr noundef %1, ptr noundef %2, i32 noundef %3, ptr noundef %4) local_unnamed_addr #0 {
  %6 = alloca ptr, align 8
  call void @llvm.lifetime.start.p0(i64 8, ptr nonnull %6) #15
  store ptr null, ptr %0, align 8, !tbaa !4
  %7 = tail call noalias ptr @av_mallocz(i64 noundef 112) #15
  store ptr %7, ptr %6, align 8, !tbaa !14
  %.not = icmp eq ptr %7, null
  br i1 %.not, label %18, label %8

8:                                                ; preds = %5
  store ptr @enc_class, ptr %7, align 8, !tbaa !16
  %9 = getelementptr inbounds nuw i8, ptr %7, i64 32
  store ptr %4, ptr %9, align 8, !tbaa !20
  %10 = getelementptr inbounds nuw i8, ptr %7, i64 96
  store ptr %2, ptr %10, align 8, !tbaa !21
  %11 = getelementptr inbounds nuw i8, ptr %7, i64 104
  store i32 %3, ptr %11, align 8, !tbaa !22
  %12 = getelementptr inbounds nuw i8, ptr %7, i64 40
  %13 = load ptr, ptr %1, align 8, !tbaa !23
  %14 = tail call i32 (ptr, i64, ptr, ...) @snprintf(ptr noundef nonnull dereferenceable(1) %12, i64 noundef 32, ptr noundef nonnull @.str, ptr noundef %13) #15
  %15 = tail call ptr @avcodec_alloc_context3(ptr noundef nonnull %1) #15
  %16 = getelementptr inbounds nuw i8, ptr %7, i64 8
  store ptr %15, ptr %16, align 8, !tbaa !30
  %.not9 = icmp eq ptr %15, null
  br i1 %.not9, label %enc_free.exit, label %17

enc_free.exit:                                    ; preds = %8
  tail call void @avcodec_free_context(ptr noundef nonnull %16) #15
  call void @av_freep(ptr noundef nonnull %6) #15
  br label %18

17:                                               ; preds = %8
  store ptr %7, ptr %0, align 8, !tbaa !4
  br label %18

18:                                               ; preds = %5, %enc_free.exit, %17
  %.0 = phi i32 [ 0, %17 ], [ -12, %enc_free.exit ], [ -12, %5 ]
  call void @llvm.lifetime.end.p0(i64 8, ptr nonnull %6) #15
  ret i32 %.0
}